; Function Attrs: nounwind uwtable
define range(i32 0, 2) i32 @SSL_is_dtls(ptr noundef %0) local_unnamed_addr #0 {
  %2 = icmp eq ptr %0, null
  br i1 %2, label %.thread, label %3

3:                                                ; preds = %1
  %4 = load i32, ptr %0, align 8, !tbaa !19
  %5 = icmp eq i32 %4, 0
  br i1 %5, label %12, label %6

6:                                                ; preds = %3
  %7 = and i32 %4, 128
  %.not = icmp eq i32 %7, 0
  br i1 %.not, label %.thread, label %8

8:                                                ; preds = %6
  %9 = tail call ptr @ossl_quic_obj_get0_handshake_layer(ptr noundef nonnull %0) #20
  %.pre = load i32, ptr %0, align 8, !tbaa !19
  %10 = and i32 %.pre, -2
  %11 = icmp eq i32 %10, 128
  br label %12

12:                                               ; preds = %3, %8
  %switch = phi i1 [ %11, %8 ], [ false, %3 ]
  %13 = phi ptr [ %9, %8 ], [ %0, %3 ]
  %14 = icmp eq ptr %13, null
  %or.cond = select i1 %switch, i1 true, i1 %14
  br i1 %or.cond, label %.thread, label %15

15:                                               ; preds = %12
  %16 = getelementptr inbounds nuw i8, ptr %13, i64 24
  %17 = load ptr, ptr %16, align 8, !tbaa !245
  %18 = getelementptr inbounds nuw i8, ptr %17, i64 216
  %19 = load ptr, ptr %18, align 8, !tbaa !246
  %20 = getelementptr inbounds nuw i8, ptr %19, i64 80
  %21 = load i32, ptr %20, align 8, !tbaa !247
  %22 = lshr i32 %21, 3
  %.lobit = and i32 %22, 1
  br label %.thread

.thread:                                          ; preds = %6, %1, %12, %15
  %.0 = phi i32 [ %.lobit, %15 ], [ 0, %12 ], [ 0, %1 ], [ 0, %6 ]
  ret i32 %.0
}